target datalayout = "e-m:e-p270:32:32-p271:32:32-p272:64:64-i64:64-i128:128-f80:128-n8:16:32:64-S128"
target triple = "x86_64-pc-linux-gnu"

; Function Attrs: mustprogress nounwind uwtable
define noundef zeroext i1 @_ZN4LIEF3DEX15is_switch_arrayEPKhS2_(ptr noundef %0, ptr noundef %1) #1 {
  %3 = alloca i1, align 1
  %4 = alloca ptr, align 8
  %5 = alloca ptr, align 8
  %6 = alloca i64, align 8
  %7 = alloca i64, align 8
  %8 = alloca i32, align 4
  %9 = alloca i8, align 1
  %10 = alloca i8, align 1
  %11 = alloca i16, align 2
  store ptr %0, ptr %4, align 8, !tbaa !53
  store ptr %1, ptr %5, align 8, !tbaa !53
  call void @llvm.lifetime.start.p0(i64 8, ptr %6) #2
  %12 = load ptr, ptr %5, align 8, !tbaa !53
  %13 = load ptr, ptr %4, align 8, !tbaa !53
  %14 = ptrtoint ptr %12 to i64
  %15 = ptrtoint ptr %13 to i64
  %16 = sub i64 %14, %15
  store i64 %16, ptr %6, align 8, !tbaa !55
  call void @llvm.lifetime.start.p0(i64 8, ptr %7) #2
  store i64 4, ptr %7, align 8, !tbaa !55
  %17 = load i64, ptr %6, align 8, !tbaa !55
  %18 = icmp ult i64 %17, 4
  br i1 %18, label %19, label %20

19:                                               ; preds = %2
  store i1 false, ptr %3, align 1
  store i32 1, ptr %8, align 4
  br label %58

20:                                               ; preds = %2
  call void @llvm.lifetime.start.p0(i64 1, ptr %9) #2
  %21 = load ptr, ptr %4, align 8, !tbaa !53
  %22 = load i8, ptr %21, align 1, !tbaa !9
  store i8 %22, ptr %9, align 1, !tbaa !3
  call void @llvm.lifetime.start.p0(i64 1, ptr %10) #2
  %23 = load i8, ptr %9, align 1, !tbaa !3
  %24 = zext i8 %23 to i32
  %25 = icmp eq i32 %24, 0
  br i1 %25, label %34, label %26

26:                                               ; preds = %20
  %27 = load i8, ptr %9, align 1, !tbaa !3
  %28 = zext i8 %27 to i32
  %29 = icmp eq i32 %28, 14
  br i1 %29, label %34, label %30

30:                                               ; preds = %26
  %31 = load i8, ptr %9, align 1, !tbaa !3
  %32 = zext i8 %31 to i32
  %33 = icmp eq i32 %32, 115
  br label %34

34:                                               ; preds = %30, %26, %20
  %35 = phi i1 [ true, %26 ], [ true, %20 ], [ %33, %30 ]
  %36 = zext i1 %35 to i8
  store i8 %36, ptr %10, align 1, !tbaa !56
  %37 = load i8, ptr %10, align 1, !tbaa !56, !range !58, !noundef !59
  %38 = trunc i8 %37 to i1
  br i1 %38, label %40, label %39

39:                                               ; preds = %34
  store i1 false, ptr %3, align 1
  store i32 1, ptr %8, align 4
  br label %57

40:                                               ; preds = %34
  call void @llvm.lifetime.start.p0(i64 2, ptr %11) #2
  %41 = load ptr, ptr %4, align 8, !tbaa !53
  %42 = getelementptr inbounds i8, ptr %41, i64 1
  %43 = load i8, ptr %42, align 1, !tbaa !9
  %44 = zext i8 %43 to i32
  %45 = shl i32 %44, 8
  %46 = trunc i32 %45 to i16
  %47 = zext i16 %46 to i32
  %48 = load i8, ptr %9, align 1, !tbaa !3
  %49 = zext i8 %48 to i32
  %50 = or i32 %47, %49
  %51 = trunc i32 %50 to i16
  store i16 %51, ptr %11, align 2, !tbaa !60
  %52 = load i16, ptr %11, align 2, !tbaa !60
  %53 = zext i16 %52 to i32
  switch i32 %53, label %55 [
    i32 256, label %54
    i32 512, label %54
    i32 768, label %54
  ]

54:                                               ; preds = %40, %40, %40
  store i1 true, ptr %3, align 1
  store i32 1, ptr %8, align 4
  br label %56

55:                                               ; preds = %40
  store i1 false, ptr %3, align 1
  store i32 1, ptr %8, align 4
  br label %56

56:                                               ; preds = %55, %54
  call void @llvm.lifetime.end.p0(i64 2, ptr %11) #2
  br label %57

57:                                               ; preds = %56, %39
  call void @llvm.lifetime.end.p0(i64 1, ptr %10) #2
  call void @llvm.lifetime.end.p0(i64 1, ptr %9) #2
  br label %58

58:                                               ; preds = %57, %19
  call void @llvm.lifetime.end.p0(i64 8, ptr %7) #2
  call void @llvm.lifetime.end.p0(i64 8, ptr %6) #2
  %59 = load i1, ptr %3, align 1
  ret i1 %59
}