; Function Attrs: mustprogress nofree norecurse nosync nounwind willreturn memory(argmem: read) uwtable
define noundef zeroext i1 @_ZN4LIEF3DEX15is_switch_arrayEPKhS2_(ptr noundef %0, ptr noundef %1) local_unnamed_addr #4 {
  %3 = ptrtoint ptr %1 to i64
  %4 = ptrtoint ptr %0 to i64
  %5 = sub i64 %3, %4
  %6 = icmp ult i64 %5, 4
  br i1 %6, label %15, label %7

7:                                                ; preds = %2
  %8 = load i8, ptr %0, align 1, !tbaa !5
  switch i8 %8, label %15 [
    i8 14, label %.critedge
    i8 0, label %.critedge
    i8 115, label %.critedge
  ]

.critedge:                                        ; preds = %7, %7, %7
  %9 = zext nneg i8 %8 to i16
  %10 = getelementptr inbounds nuw i8, ptr %0, i64 1
  %11 = load i8, ptr %10, align 1, !tbaa !5
  %12 = zext i8 %11 to i16
  %13 = shl nuw i16 %12, 8
  %trunc = or disjoint i16 %13, %9
  switch i16 %trunc, label %14 [
    i16 256, label %15
    i16 512, label %15
    i16 768, label %15
  ]

14:                                               ; preds = %.critedge
  br label %15

15:                                               ; preds = %7, %.critedge, %.critedge, %.critedge, %14, %2
  %.0 = phi i1 [ false, %2 ], [ false, %14 ], [ true, %.critedge ], [ true, %.critedge ], [ true, %.critedge ], [ false, %7 ]
  ret i1 %.0
}